; Function Attrs: nounwind uwtable
define internal void @relcbfunc(ptr noundef %0) #1 {
  %2 = load i32, ptr getelementptr inbounds nuw (i8, ptr @pmix_globals, i64 392), align 8, !tbaa !121
  %or.cond = icmp ult i32 %2, 64
  br i1 %or.cond, label %3, label %9

3:                                                ; preds = %1
  %4 = zext nneg i32 %2 to i64
  %5 = getelementptr inbounds nuw [0 x %struct.pmix_output_desc_t], ptr @pmix_output_info, i64 0, i64 %4, i32 2
  %6 = load i32, ptr %5, align 4, !tbaa !89
  %7 = icmp sgt i32 %6, 1
  br i1 %7, label %8, label %9

8:                                                ; preds = %3
  tail call void (i32, ptr, ...) @pmix_output(i32 noundef %2, ptr noundef nonnull @.str.26) #14
  br label %9

9:                                                ; preds = %8, %3, %1
  %10 = getelementptr inbounds nuw i8, ptr %0, i64 560
  %11 = load ptr, ptr %10, align 8, !tbaa !181
  %.not = icmp eq ptr %11, null
  br i1 %.not, label %15, label %12

12:                                               ; preds = %9
  %13 = getelementptr inbounds nuw i8, ptr %0, i64 568
  %14 = load i64, ptr %13, align 8, !tbaa !180
  tail call void @PMIx_Info_free(ptr noundef nonnull %11, i64 noundef %14) #14
  store ptr null, ptr %10, align 8, !tbaa !181
  br label %15

15:                                               ; preds = %9, %12
  %16 = tail call i32 @pthread_mutex_lock(ptr noundef nonnull %0) #14
  %17 = icmp eq i32 %16, 35
  br i1 %17, label %18, label %pmix_obj_update.exit

18:                                               ; preds = %15
  %19 = tail call ptr @__errno_location() #16
  store i32 35, ptr %19, align 4, !tbaa !37
  tail call void @perror(ptr noundef nonnull @.str.16) #17
  tail call void @abort() #18
  unreachable

pmix_obj_update.exit:                             ; preds = %15
  %20 = getelementptr inbounds nuw i8, ptr %0, i64 48
  %21 = load i32, ptr %20, align 8, !tbaa !41
  %22 = add nsw i32 %21, -1
  store i32 %22, ptr %20, align 8, !tbaa !41
  %23 = tail call i32 @pthread_mutex_unlock(ptr noundef nonnull %0) #14
  %24 = icmp eq i32 %22, 0
  br i1 %24, label %25, label %39

25:                                               ; preds = %pmix_obj_update.exit
  %26 = getelementptr inbounds nuw i8, ptr %0, i64 40
  %27 = load ptr, ptr %26, align 8, !tbaa !40
  %28 = getelementptr inbounds nuw i8, ptr %27, i64 48
  %29 = load ptr, ptr %28, align 8, !tbaa !99
  %30 = load ptr, ptr %29, align 8, !tbaa !43
  %.not6.i = icmp eq ptr %30, null
  br i1 %.not6.i, label %pmix_obj_run_destructors.exit, label %.lr.ph.i

.lr.ph.i:                                         ; preds = %25, %.lr.ph.i
  %31 = phi ptr [ %33, %.lr.ph.i ], [ %30, %25 ]
  %.07.i = phi ptr [ %32, %.lr.ph.i ], [ %29, %25 ]
  tail call void %31(ptr noundef nonnull %0) #14
  %32 = getelementptr inbounds nuw i8, ptr %.07.i, i64 8
  %33 = load ptr, ptr %32, align 8, !tbaa !43
  %.not.i = icmp eq ptr %33, null
  br i1 %.not.i, label %pmix_obj_run_destructors.exit, label %.lr.ph.i, !llvm.loop !100

pmix_obj_run_destructors.exit:                    ; preds = %.lr.ph.i, %25
  %34 = getelementptr inbounds nuw i8, ptr %0, i64 96
  %35 = load ptr, ptr %34, align 8, !tbaa !114
  %.not14 = icmp eq ptr %35, null
  br i1 %.not14, label %38, label %36

36:                                               ; preds = %pmix_obj_run_destructors.exit
  %37 = getelementptr inbounds nuw i8, ptr %0, i64 56
  tail call void %35(ptr noundef nonnull %37, ptr noundef nonnull %0) #14
  br label %39

38:                                               ; preds = %pmix_obj_run_destructors.exit
  tail call void @free(ptr noundef nonnull %0) #14
  br label %39

39:                                               ; preds = %36, %38, %pmix_obj_update.exit
  ret void
}